target datalayout = "e-m:e-p270:32:32-p271:32:32-p272:64:64-i64:64-i128:128-f80:128-n8:16:32:64-S128"
target triple = "x86_64-pc-linux-gnu"

%"class.icu_77::MaybeStackArray" = type <{ ptr, i32, i8, [40 x i8], [3 x i8] }>
%"class.icu_77::CharString" = type { %"class.icu_77::MaybeStackArray", i32, [4 x i8] }
%"class.icu_77::MeasureUnitImpl" = type { i32, %"class.icu_77::MaybeStackVector", %"class.icu_77::CharString", i64 }
%"class.icu_77::MaybeStackVector" = type { %"class.icu_77::MemoryPool" }
%"class.icu_77::MemoryPool" = type { i32, %"class.icu_77::MaybeStackArray.0" }
%"class.icu_77::MaybeStackArray.0" = type { ptr, i32, i8, [8 x ptr] }
%"class.icu_77::BytesTrie" = type <{ ptr, ptr, ptr, i32, [4 x i8] }>
%"class.icu_77::StringPiece" = type <{ ptr, i32, [4 x i8] }>
%"class.icu_77::(anonymous namespace)::Parser" = type <{ i32, [4 x i8], %"class.icu_77::StringPiece", %"class.icu_77::BytesTrie", i8, i8, [6 x i8] }>

; Function Attrs: inlinehint mustprogress nounwind uwtable
define internal void @_ZN6icu_7712_GLOBAL__N_16ParserD2Ev(ptr noundef nonnull align 8 dereferenceable(58) %0) unnamed_addr #2 align 2 {
  %2 = alloca ptr, align 8
  store ptr %0, ptr %2, align 8, !tbaa !98
  %3 = load ptr, ptr %2, align 8
  %4 = getelementptr inbounds nuw %"class.icu_77::(anonymous namespace)::Parser", ptr %3, i32 0, i32 3
  call void @_ZN6icu_779BytesTrieD1Ev(ptr noundef nonnull align 8 dereferenceable(28) %4) #14
  ret void
}

; Function Attrs: mustprogress uwtable
define void @_ZN6icu_7715MeasureUnitImpl13forIdentifierENS_11StringPieceER10UErrorCode(ptr dead_on_unwind noalias writable sret(%"class.icu_77::MeasureUnitImpl") align 8 %0, ptr %1, i32 %2, ptr noundef nonnull align 4 dereferenceable(4) %3) #1 align 2 personality ptr @__gxx_personality_v0 {
  %5 = alloca ptr, align 8
  %6 = alloca %"class.icu_77::StringPiece", align 8
  %7 = alloca ptr, align 8
  %8 = alloca %"class.icu_77::(anonymous namespace)::Parser", align 8
  %9 = alloca %"class.icu_77::StringPiece", align 8
  %10 = alloca ptr, align 8
  %11 = alloca i32, align 4
  store ptr %0, ptr %5, align 8
  %12 = getelementptr inbounds nuw { ptr, i32 }, ptr %6, i32 0, i32 0
  store ptr %1, ptr %12, align 8
  %13 = getelementptr inbounds nuw { ptr, i32 }, ptr %6, i32 0, i32 1
  store i32 %2, ptr %13, align 8
  store ptr %3, ptr %7, align 8, !tbaa !22
  call void @llvm.lifetime.start.p0(i64 64, ptr %8) #14
  call void @llvm.memcpy.p0.p0.i64(ptr align 8 %9, ptr align 8 %6, i64 16, i1 false)
  %14 = load ptr, ptr %7, align 8, !tbaa !22
  %15 = getelementptr inbounds nuw { ptr, i32 }, ptr %9, i32 0, i32 0
  %16 = load ptr, ptr %15, align 8
  %17 = getelementptr inbounds nuw { ptr, i32 }, ptr %9, i32 0, i32 1
  %18 = load i32, ptr %17, align 8
  call void @_ZN6icu_7712_GLOBAL__N_16Parser4fromENS_11StringPieceER10UErrorCode(ptr dead_on_unwind writable sret(%"class.icu_77::(anonymous namespace)::Parser") align 8 %8, ptr %16, i32 %18, ptr noundef nonnull align 4 dereferenceable(4) %14)
  %19 = load ptr, ptr %7, align 8, !tbaa !22
  invoke void @_ZN6icu_7712_GLOBAL__N_16Parser5parseER10UErrorCode(ptr dead_on_unwind writable sret(%"class.icu_77::MeasureUnitImpl") align 8 %0, ptr noundef nonnull align 8 dereferenceable(58) %8, ptr noundef nonnull align 4 dereferenceable(4) %19)
          to label %20 unwind label %21

20:                                               ; preds = %4
  call void @_ZN6icu_7712_GLOBAL__N_16ParserD2Ev(ptr noundef nonnull align 8 dereferenceable(58) %8) #14
  call void @llvm.lifetime.end.p0(i64 64, ptr %8) #14
  ret void

21:                                               ; preds = %4
  %22 = landingpad { ptr, i32 }
          cleanup
  %23 = extractvalue { ptr, i32 } %22, 0
  store ptr %23, ptr %10, align 8
  %24 = extractvalue { ptr, i32 } %22, 1
  store i32 %24, ptr %11, align 4
  call void @_ZN6icu_7712_GLOBAL__N_16ParserD2Ev(ptr noundef nonnull align 8 dereferenceable(58) %8) #14
  call void @llvm.lifetime.end.p0(i64 64, ptr %8) #14
  br label %25

25:                                               ; preds = %21
  %26 = load ptr, ptr %10, align 8
  %27 = load i32, ptr %11, align 4
  %28 = insertvalue { ptr, i32 } poison, ptr %26, 0
  %29 = insertvalue { ptr, i32 } %28, i32 %27, 1
  resume { ptr, i32 } %29
}