; Function Attrs: mustprogress uwtable
define void @_ZN6icu_7715MeasureUnitImpl13forIdentifierENS_11StringPieceER10UErrorCode(ptr dead_on_unwind noalias writable sret(%"class.icu_77::MeasureUnitImpl") align 8 initializes((0, 4), (8, 12)) %0, ptr %1, i32 %2, ptr noundef nonnull align 4 dereferenceable(4) %3) local_unnamed_addr #1 align 2 personality ptr @__gxx_personality_v0 {
  %5 = alloca %"class.icu_77::(anonymous namespace)::Parser", align 8
  call void @llvm.lifetime.start.p0(i64 64, ptr nonnull %5) #18
  call fastcc void @_ZN6icu_7712_GLOBAL__N_16Parser4fromENS_11StringPieceER10UErrorCode(ptr dead_on_unwind noalias writable align 8 %5, ptr %1, i32 %2, ptr noundef nonnull align 4 dereferenceable(4) %3)
  invoke fastcc void @_ZN6icu_7712_GLOBAL__N_16Parser5parseER10UErrorCode(ptr dead_on_unwind noalias writable align 8 %0, ptr noundef nonnull align 8 dereferenceable(58) %5, ptr noundef nonnull align 4 dereferenceable(4) %3)
          to label %6 unwind label %8

6:                                                ; preds = %4
  %7 = getelementptr inbounds nuw i8, ptr %5, i64 24
  call void @_ZN6icu_779BytesTrieD1Ev(ptr noundef nonnull align 8 dereferenceable(28) %7) #18
  call void @llvm.lifetime.end.p0(i64 64, ptr nonnull %5) #18
  ret void

8:                                                ; preds = %4
  %9 = landingpad { ptr, i32 }
          cleanup
  %10 = getelementptr inbounds nuw i8, ptr %5, i64 24
  call void @_ZN6icu_779BytesTrieD1Ev(ptr noundef nonnull align 8 dereferenceable(28) %10) #18
  call void @llvm.lifetime.end.p0(i64 64, ptr nonnull %5) #18
  resume { ptr, i32 } %9
}